; Function Attrs: mustprogress uwtable
define noundef nonnull align 8 dereferenceable(24) ptr @_ZNK8QuantLib17StrippedOptionlet20optionletFixingTimesEv(ptr noundef nonnull align 8 dereferenceable(240) %this) unnamed_addr #8 align 2 {
entry:
  %vtable = load ptr, ptr %this, align 8, !tbaa !33
  %vfn = getelementptr inbounds i8, ptr %vtable, i64 24
  %0 = load ptr, ptr %vfn, align 8
  tail call void %0(ptr noundef nonnull align 8 dereferenceable(12) %this)
  %optionletTimes_ = getelementptr inbounds nuw i8, ptr %this, i64 120
  ret ptr %optionletTimes_
}